Certificate:
    Data:
        Version: 3 (0x2)
        Serial Number: 284964 (0x45924)
        Signature Algorithm: sha256WithRSAEncryption
        Issuer: CN=web-platform-tests
        Validity
            Not Before: Jul 12 01:11:54 2023 GMT
            Not After : Jul 11 01:11:54 2024 GMT
        Subject: CN=web-platform.test
        Subject Public Key Info:
            Public Key Algorithm: rsaEncryption
                RSA Public-Key: (2048 bit)
                Modulus:
                    00:aa:fb:ae:1b:72:37:c3:e6:2c:c2:f3:87:a6:5b:
                    c3:df:e8:d9:12:9b:26:40:74:0b:9e:ea:fd:fd:9c:
                    57:04:d5:44:93:a8:c8:2a:0b:63:b9:86:0f:09:c4:
                    ad:3e:a6:c2:f5:02:91:ec:47:1d:f4:40:04:0a:6d:
                    9b:77:72:49:21:48:3e:3d:79:8e:d7:71:3e:00:4b:
                    ea:be:fe:1f:98:fb:71:ee:8b:93:c7:02:c5:9a:6a:
                    df:5c:67:d9:d4:ea:84:b9:64:d0:de:65:23:35:a0:
                    d4:74:72:da:a7:c0:f2:44:e6:7d:f4:02:80:0e:c9:
                    54:41:1b:47:92:ae:fe:c1:9f:34:f9:0d:4d:30:ea:
                    5a:d3:72:ab:43:74:21:a7:a0:fa:cc:ad:5e:ae:1a:
                    b0:13:3e:77:f7:2b:3b:ad:34:6f:d8:37:7e:6b:94:
                    5b:da:41:d3:db:b2:de:bc:85:7c:d6:7f:d4:95:99:
                    e0:14:06:ac:b7:55:37:09:f0:a8:cc:49:c3:04:6c:
                    81:c1:49:26:88:63:f5:6d:50:03:33:60:21:f3:dd:
                    b5:62:e7:e2:67:4d:82:2f:1b:1e:0a:ca:81:65:7e:
                    97:56:86:27:a8:e9:5f:30:15:de:73:05:94:92:16:
                    b7:2d:f0:38:97:d4:ed:5e:ce:6a:22:a2:e1:b1:2e:
                    d1:61
                Exponent: 65537 (0x10001)
        X509v3 extensions:
            X509v3 Basic Constraints: 
                CA:FALSE
            X509v3 Subject Key Identifier: 
                A1:9E:1A:B6:39:8F:F6:E6:D4:7E:74:E6:B7:A3:57:5D:D1:37:79:F8
            X509v3 Authority Key Identifier: 
                keyid:60:DA:86:21:21:43:29:12:24:68:28:E4:76:88:1C:AC:0A:12:43:69

            X509v3 Key Usage: 
                Digital Signature, Non Repudiation, Key Encipherment
            X509v3 Extended Key Usage: 
                TLS Web Server Authentication
            X509v3 Subject Alternative Name: 
                DNS:web-platform.test, DNS:www.web-platform.test, DNS:not-web-platform.test, DNS:www1.web-platform.test, DNS:www2.web-platform.test, DNS:www.not-web-platform.test, DNS:www.www.web-platform.test, DNS:www1.www.web-platform.test, DNS:www.www2.web-platform.test, DNS:www2.www.web-platform.test, DNS:www1.not-web-platform.test, DNS:www.www1.web-platform.test, DNS:www2.not-web-platform.test, DNS:www2.www2.web-platform.test, DNS:www2.www1.web-platform.test, DNS:www1.www2.web-platform.test, DNS:www1.www1.web-platform.test, DNS:www.www.not-web-platform.test, DNS:www.www1.not-web-platform.test, DNS:xn--lve-6lad.web-platform.test, DNS:www1.www.not-web-platform.test, DNS:www2.www.not-web-platform.test, DNS:www.www2.not-web-platform.test, DNS:www1.www2.not-web-platform.test, DNS:www1.www1.not-web-platform.test, DNS:www2.www2.not-web-platform.test, DNS:www2.www1.not-web-platform.test, DNS:www.xn--lve-6lad.web-platform.test, DNS:xn--lve-6lad.www.web-platform.test, DNS:xn--lve-6lad.not-web-platform.test, DNS:www2.xn--lve-6lad.web-platform.test, DNS:xn--lve-6lad.www2.web-platform.test, DNS:www1.xn--lve-6lad.web-platform.test, DNS:xn--lve-6lad.www1.web-platform.test, DNS:xn--lve-6lad.www.not-web-platform.test, DNS:www.xn--lve-6lad.not-web-platform.test, DNS:www1.xn--lve-6lad.not-web-platform.test, DNS:xn--lve-6lad.www1.not-web-platform.test, DNS:www2.xn--lve-6lad.not-web-platform.test, DNS:xn--lve-6lad.www2.not-web-platform.test, DNS:xn--n8j6ds53lwwkrqhv28a.web-platform.test, DNS:xn--lve-6lad.xn--lve-6lad.web-platform.test, DNS:xn--n8j6ds53lwwkrqhv28a.www.web-platform.test, DNS:xn--n8j6ds53lwwkrqhv28a.not-web-platform.test, DNS:www.xn--n8j6ds53lwwkrqhv28a.web-platform.test, DNS:www1.xn--n8j6ds53lwwkrqhv28a.web-platform.test, DNS:www2.xn--n8j6ds53lwwkrqhv28a.web-platform.test, DNS:xn--n8j6ds53lwwkrqhv28a.www2.web-platform.test, DNS:xn--n8j6ds53lwwkrqhv28a.www1.web-platform.test, DNS:xn--lve-6lad.xn--lve-6lad.not-web-platform.test, DNS:xn--n8j6ds53lwwkrqhv28a.www.not-web-platform.test, DNS:www.xn--n8j6ds53lwwkrqhv28a.not-web-platform.test, DNS:xn--n8j6ds53lwwkrqhv28a.www1.not-web-platform.test, DNS:www1.xn--n8j6ds53lwwkrqhv28a.not-web-platform.test, DNS:www2.xn--n8j6ds53lwwkrqhv28a.not-web-platform.test, DNS:xn--n8j6ds53lwwkrqhv28a.www2.not-web-platform.test, DNS:xn--lve-6lad.xn--n8j6ds53lwwkrqhv28a.web-platform.test, DNS:xn--n8j6ds53lwwkrqhv28a.xn--lve-6lad.web-platform.test, DNS:xn--n8j6ds53lwwkrqhv28a.xn--lve-6lad.not-web-platform.test, DNS:xn--lve-6lad.xn--n8j6ds53lwwkrqhv28a.not-web-platform.test, DNS:xn--n8j6ds53lwwkrqhv28a.xn--n8j6ds53lwwkrqhv28a.web-platform.test, DNS:xn--n8j6ds53lwwkrqhv28a.xn--n8j6ds53lwwkrqhv28a.not-web-platform.test
    Signature Algorithm: sha256WithRSAEncryption
         4b:ec:4c:51:29:87:14:d5:4d:22:28:51:a2:87:11:0c:d3:01:
         c1:45:56:bd:1f:d7:75:5d:d4:d4:7a:cc:1f:59:7c:83:0f:fd:
         dd:12:bc:0f:ba:f4:38:75:4d:94:36:e5:67:ef:89:69:ac:3a:
         17:41:d9:35:33:1c:5c:5b:60:1c:a0:04:aa:1f:a5:d2:21:f8:
         22:dd:45:f4:61:a7:a6:45:d0:12:be:ee:0e:7c:3e:cf:39:22:
         46:b4:11:bf:0a:41:94:14:f1:f4:a0:dd:74:64:ef:24:83:0b:
         dd:a7:26:92:e1:e3:fd:33:df:86:be:ca:e1:46:37:52:78:90:
         4d:9d:58:a4:02:c6:3c:72:66:23:de:da:80:02:e0:7a:19:37:
         ba:d5:7b:7c:18:5d:3a:4d:ec:05:57:31:5e:01:85:1a:8a:9f:
         95:a2:eb:19:44:09:e4:cf:5a:09:ec:a2:f0:90:41:eb:a4:7e:
         02:b4:b3:d0:af:cc:93:9b:db:71:71:83:20:a8:bc:a8:1f:ea:
         1c:69:9f:76:d1:60:d2:d4:aa:3f:c7:e9:b6:c7:ff:fd:5b:e1:
         ca:76:65:52:08:84:fc:4f:dc:47:77:47:8e:23:46:d6:10:e3:
         8b:ad:2c:ca:20:31:c0:23:5b:d7:00:43:52:f2:a8:d8:c8:56:
         26:cf:f5:49
-----BEGIN CERTIFICATE-----
MIIMsjCCC5qgAwIBAgIDBFkkMA0GCSqGSIb3DQEBCwUAMB0xGzAZBgNVBAMMEndl
Yi1wbGF0Zm9ybS10ZXN0czAeFw0yMzA3MTIwMTExNTRaFw0yNDA3MTEwMTExNTRa
MBwxGjAYBgNVBAMMEXdlYi1wbGF0Zm9ybS50ZXN0MIIBIjANBgkqhkiG9w0BAQEF
AAOCAQ8AMIIBCgKCAQEAqvuuG3I3w+YswvOHplvD3+jZEpsmQHQLnur9/ZxXBNVE
k6jIKgtjuYYPCcStPqbC9QKR7Ecd9EAECm2bd3JJIUg+PXmO13E+AEvqvv4fmPtx
7ouTxwLFmmrfXGfZ1OqEuWTQ3mUjNaDUdHLap8DyROZ99AKADslUQRtHkq7+wZ80
+Q1NMOpa03KrQ3Qhp6D6zK1erhqwEz539ys7rTRv2Dd+a5Rb2kHT27LevIV81n/U
lZngFAast1U3CfCozEnDBGyBwUkmiGP1bVADM2Ah8921YufiZ02CLxseCsqBZX6X
VoYnqOlfMBXecwWUkha3LfA4l9TtXs5qIqLhsS7RYQIDAQABo4IJ+jCCCfYwCQYD
VR0TBAIwADAdBgNVHQ4EFgQUoZ4atjmP9ubUfnTmt6NXXdE3efgwHwYDVR0jBBgw
FoAUYNqGISFDKRIkaCjkdogcrAoSQ2kwCwYDVR0PBAQDAgXgMBMGA1UdJQQMMAoG
CCsGAQUFBwMBMIIJhQYDVR0RBIIJfDCCCXiCEXdlYi1wbGF0Zm9ybS50ZXN0ghV3
d3cud2ViLXBsYXRmb3JtLnRlc3SCFW5vdC13ZWItcGxhdGZvcm0udGVzdIIWd3d3
MS53ZWItcGxhdGZvcm0udGVzdIIWd3d3Mi53ZWItcGxhdGZvcm0udGVzdIIZd3d3
Lm5vdC13ZWItcGxhdGZvcm0udGVzdIIZd3d3Lnd3dy53ZWItcGxhdGZvcm0udGVz
dIIad3d3MS53d3cud2ViLXBsYXRmb3JtLnRlc3SCGnd3dy53d3cyLndlYi1wbGF0
Zm9ybS50ZXN0ghp3d3cyLnd3dy53ZWItcGxhdGZvcm0udGVzdIIad3d3MS5ub3Qt
d2ViLXBsYXRmb3JtLnRlc3SCGnd3dy53d3cxLndlYi1wbGF0Zm9ybS50ZXN0ghp3
d3cyLm5vdC13ZWItcGxhdGZvcm0udGVzdIIbd3d3Mi53d3cyLndlYi1wbGF0Zm9y
bS50ZXN0ght3d3cyLnd3dzEud2ViLXBsYXRmb3JtLnRlc3SCG3d3dzEud3d3Mi53
ZWItcGxhdGZvcm0udGVzdIIbd3d3MS53d3cxLndlYi1wbGF0Zm9ybS50ZXN0gh13
d3cud3d3Lm5vdC13ZWItcGxhdGZvcm0udGVzdIIed3d3Lnd3dzEubm90LXdlYi1w
bGF0Zm9ybS50ZXN0gh54bi0tbHZlLTZsYWQud2ViLXBsYXRmb3JtLnRlc3SCHnd3
dzEud3d3Lm5vdC13ZWItcGxhdGZvcm0udGVzdIIed3d3Mi53d3cubm90LXdlYi1w
bGF0Zm9ybS50ZXN0gh53d3cud3d3Mi5ub3Qtd2ViLXBsYXRmb3JtLnRlc3SCH3d3
dzEud3d3Mi5ub3Qtd2ViLXBsYXRmb3JtLnRlc3SCH3d3dzEud3d3MS5ub3Qtd2Vi
LXBsYXRmb3JtLnRlc3SCH3d3dzIud3d3Mi5ub3Qtd2ViLXBsYXRmb3JtLnRlc3SC
H3d3dzIud3d3MS5ub3Qtd2ViLXBsYXRmb3JtLnRlc3SCInd3dy54bi0tbHZlLTZs
YWQud2ViLXBsYXRmb3JtLnRlc3SCInhuLS1sdmUtNmxhZC53d3cud2ViLXBsYXRm
b3JtLnRlc3SCInhuLS1sdmUtNmxhZC5ub3Qtd2ViLXBsYXRmb3JtLnRlc3SCI3d3
dzIueG4tLWx2ZS02bGFkLndlYi1wbGF0Zm9ybS50ZXN0giN4bi0tbHZlLTZsYWQu
d3d3Mi53ZWItcGxhdGZvcm0udGVzdIIjd3d3MS54bi0tbHZlLTZsYWQud2ViLXBs
YXRmb3JtLnRlc3SCI3huLS1sdmUtNmxhZC53d3cxLndlYi1wbGF0Zm9ybS50ZXN0
giZ4bi0tbHZlLTZsYWQud3d3Lm5vdC13ZWItcGxhdGZvcm0udGVzdIImd3d3Lnhu
LS1sdmUtNmxhZC5ub3Qtd2ViLXBsYXRmb3JtLnRlc3SCJ3d3dzEueG4tLWx2ZS02
bGFkLm5vdC13ZWItcGxhdGZvcm0udGVzdIIneG4tLWx2ZS02bGFkLnd3dzEubm90
LXdlYi1wbGF0Zm9ybS50ZXN0gid3d3cyLnhuLS1sdmUtNmxhZC5ub3Qtd2ViLXBs
YXRmb3JtLnRlc3SCJ3huLS1sdmUtNmxhZC53d3cyLm5vdC13ZWItcGxhdGZvcm0u
dGVzdIIpeG4tLW44ajZkczUzbHd3a3JxaHYyOGEud2ViLXBsYXRmb3JtLnRlc3SC
K3huLS1sdmUtNmxhZC54bi0tbHZlLTZsYWQud2ViLXBsYXRmb3JtLnRlc3SCLXhu
LS1uOGo2ZHM1M2x3d2tycWh2MjhhLnd3dy53ZWItcGxhdGZvcm0udGVzdIIteG4t
LW44ajZkczUzbHd3a3JxaHYyOGEubm90LXdlYi1wbGF0Zm9ybS50ZXN0gi13d3cu
eG4tLW44ajZkczUzbHd3a3JxaHYyOGEud2ViLXBsYXRmb3JtLnRlc3SCLnd3dzEu
eG4tLW44ajZkczUzbHd3a3JxaHYyOGEud2ViLXBsYXRmb3JtLnRlc3SCLnd3dzIu
eG4tLW44ajZkczUzbHd3a3JxaHYyOGEud2ViLXBsYXRmb3JtLnRlc3SCLnhuLS1u
OGo2ZHM1M2x3d2tycWh2MjhhLnd3dzIud2ViLXBsYXRmb3JtLnRlc3SCLnhuLS1u
OGo2ZHM1M2x3d2tycWh2MjhhLnd3dzEud2ViLXBsYXRmb3JtLnRlc3SCL3huLS1s
dmUtNmxhZC54bi0tbHZlLTZsYWQubm90LXdlYi1wbGF0Zm9ybS50ZXN0gjF4bi0t
bjhqNmRzNTNsd3drcnFodjI4YS53d3cubm90LXdlYi1wbGF0Zm9ybS50ZXN0gjF3
d3cueG4tLW44ajZkczUzbHd3a3JxaHYyOGEubm90LXdlYi1wbGF0Zm9ybS50ZXN0
gjJ4bi0tbjhqNmRzNTNsd3drcnFodjI4YS53d3cxLm5vdC13ZWItcGxhdGZvcm0u
dGVzdIIyd3d3MS54bi0tbjhqNmRzNTNsd3drcnFodjI4YS5ub3Qtd2ViLXBsYXRm
b3JtLnRlc3SCMnd3dzIueG4tLW44ajZkczUzbHd3a3JxaHYyOGEubm90LXdlYi1w
bGF0Zm9ybS50ZXN0gjJ4bi0tbjhqNmRzNTNsd3drcnFodjI4YS53d3cyLm5vdC13
ZWItcGxhdGZvcm0udGVzdII2eG4tLWx2ZS02bGFkLnhuLS1uOGo2ZHM1M2x3d2ty
cWh2MjhhLndlYi1wbGF0Zm9ybS50ZXN0gjZ4bi0tbjhqNmRzNTNsd3drcnFodjI4
YS54bi0tbHZlLTZsYWQud2ViLXBsYXRmb3JtLnRlc3SCOnhuLS1uOGo2ZHM1M2x3
d2tycWh2MjhhLnhuLS1sdmUtNmxhZC5ub3Qtd2ViLXBsYXRmb3JtLnRlc3SCOnhu
LS1sdmUtNmxhZC54bi0tbjhqNmRzNTNsd3drcnFodjI4YS5ub3Qtd2ViLXBsYXRm
b3JtLnRlc3SCQXhuLS1uOGo2ZHM1M2x3d2tycWh2MjhhLnhuLS1uOGo2ZHM1M2x3
d2tycWh2MjhhLndlYi1wbGF0Zm9ybS50ZXN0gkV4bi0tbjhqNmRzNTNsd3drcnFo
djI4YS54bi0tbjhqNmRzNTNsd3drcnFodjI4YS5ub3Qtd2ViLXBsYXRmb3JtLnRl
c3QwDQYJKoZIhvcNAQELBQADggEBAEvsTFEphxTVTSIoUaKHEQzTAcFFVr0f13Vd
1NR6zB9ZfIMP/d0SvA+69Dh1TZQ25WfviWmsOhdB2TUzHFxbYBygBKofpdIh+CLd
RfRhp6ZF0BK+7g58Ps85Ika0Eb8KQZQU8fSg3XRk7ySDC92nJpLh4/0z34a+yuFG
N1J4kE2dWKQCxjxyZiPe2oAC4HoZN7rVe3wYXTpN7AVXMV4BhRqKn5Wi6xlECeTP
WgnsovCQQeukfgK0s9CvzJOb23FxgyCovKgf6hxpn3bRYNLUqj/H6bbH//1b4cp2
ZVIIhPxP3Ed3R44jRtYQ44utLMogMcAjW9cAQ1LyqNjIVibP9Uk=
-----END CERTIFICATE-----
